; ModuleID = '52/3364.c'
source_filename = "52/3364.c"
target datalayout = "e-m:e-p270:32:32-p271:32:32-p272:64:64-i64:64-f80:128-n8:16:32:64-S128"
target triple = "x86_64-pc-linux-gnu"

@.str = private unnamed_addr constant [5 x i8] c"%d%d\00", align 1
@.str.1 = private unnamed_addr constant [3 x i8] c"%d\00", align 1
@.str.2 = private unnamed_addr constant [4 x i8] c" %d\00", align 1
@.str.3 = private unnamed_addr constant [2 x i8] c"\0A\00", align 1

; Function Attrs: noinline nounwind uwtable
define dso_local void @main() #0 {
  %1 = alloca i32, align 4
  %2 = alloca i32, align 4
  %3 = alloca i32, align 4
  %4 = alloca [100 x i32], align 16
  %5 = alloca i32, align 4
  %6 = call i32 (i8*, ...) @__isoc99_scanf(i8* getelementptr inbounds ([5 x i8], [5 x i8]* @.str, i64 0, i64 0), i32* %2, i32* %3)
  store i32 0, i32* %1, align 4
  br label %7

7:                                                ; preds = %16, %0
  %8 = load i32, i32* %1, align 4
  %9 = load i32, i32* %2, align 4
  %10 = icmp slt i32 %8, %9
  br i1 %10, label %11, label %19

11:                                               ; preds = %7
  %12 = load i32, i32* %1, align 4
  %13 = sext i32 %12 to i64
  %14 = getelementptr inbounds [100 x i32], [100 x i32]* %4, i64 0, i64 %13
  %15 = call i32 (i8*, ...) @__isoc99_scanf(i8* getelementptr inbounds ([3 x i8], [3 x i8]* @.str.1, i64 0, i64 0), i32* %14)
  br label %16

16:                                               ; preds = %11
  %17 = load i32, i32* %1, align 4
  %18 = add nsw i32 %17, 1
  store i32 %18, i32* %1, align 4
  br label %7

19:                                               ; preds = %7
  store i32 0, i32* %5, align 4
  br label %20

20:                                               ; preds = %51, %19
  %21 = load i32, i32* %5, align 4
  %22 = load i32, i32* %3, align 4
  %23 = icmp slt i32 %21, %22
  br i1 %23, label %24, label %54

24:                                               ; preds = %20
  %25 = load i32, i32* %5, align 4
  %26 = icmp eq i32 %25, 0
  br i1 %26, label %27, label %37

27:                                               ; preds = %24
  %28 = load i32, i32* %5, align 4
  %29 = load i32, i32* %2, align 4
  %30 = add nsw i32 %28, %29
  %31 = load i32, i32* %3, align 4
  %32 = sub nsw i32 %30, %31
  %33 = sext i32 %32 to i64
  %34 = getelementptr inbounds [100 x i32], [100 x i32]* %4, i64 0, i64 %33
  %35 = load i32, i32* %34, align 4
  %36 = call i32 (i8*, ...) @printf(i8* getelementptr inbounds ([3 x i8], [3 x i8]* @.str.1, i64 0, i64 0), i32 %35)
  br label %37

37:                                               ; preds = %27, %24
  %38 = load i32, i32* %5, align 4
  %39 = icmp ne i32 %38, 0
  br i1 %39, label %40, label %50

40:                                               ; preds = %37
  %41 = load i32, i32* %5, align 4
  %42 = load i32, i32* %2, align 4
  %43 = add nsw i32 %41, %42
  %44 = load i32, i32* %3, align 4
  %45 = sub nsw i32 %43, %44
  %46 = sext i32 %45 to i64
  %47 = getelementptr inbounds [100 x i32], [100 x i32]* %4, i64 0, i64 %46
  %48 = load i32, i32* %47, align 4
  %49 = call i32 (i8*, ...) @printf(i8* getelementptr inbounds ([4 x i8], [4 x i8]* @.str.2, i64 0, i64 0), i32 %48)
  br label %50

50:                                               ; preds = %40, %37
  br label %51

51:                                               ; preds = %50
  %52 = load i32, i32* %5, align 4
  %53 = add nsw i32 %52, 1
  store i32 %53, i32* %5, align 4
  br label %20

54:                                               ; preds = %20
  store i32 0, i32* %5, align 4
  br label %55

55:                                               ; preds = %67, %54
  %56 = load i32, i32* %5, align 4
  %57 = load i32, i32* %2, align 4
  %58 = load i32, i32* %3, align 4
  %59 = sub nsw i32 %57, %58
  %60 = icmp slt i32 %56, %59
  br i1 %60, label %61, label %70

61:                                               ; preds = %55
  %62 = load i32, i32* %5, align 4
  %63 = sext i32 %62 to i64
  %64 = getelementptr inbounds [100 x i32], [100 x i32]* %4, i64 0, i64 %63
  %65 = load i32, i32* %64, align 4
  %66 = call i32 (i8*, ...) @printf(i8* getelementptr inbounds ([4 x i8], [4 x i8]* @.str.2, i64 0, i64 0), i32 %65)
  br label %67

67:                                               ; preds = %61
  %68 = load i32, i32* %5, align 4
  %69 = add nsw i32 %68, 1
  store i32 %69, i32* %5, align 4
  br label %55

70:                                               ; preds = %55
  %71 = call i32 (i8*, ...) @printf(i8* getelementptr inbounds ([2 x i8], [2 x i8]* @.str.3, i64 0, i64 0))
  ret void
}

declare dso_local i32 @__isoc99_scanf(i8*, ...) #1

declare dso_local i32 @printf(i8*, ...) #1


!llvm.module.flags = !{!0}
!llvm.ident = !{!1}

!0 = !{i32 1, !"wchar_size", i32 4}
!1 = !{!"clang version 10.0.0-4ubuntu1 "}
